; Function Attrs: mustprogress uwtable
define void @_ZN8facebook5velox25getCustomTypeCastOperatorERKNSt7__cxx1112basic_stringIcSt11char_traitsIcESaIcEEE(ptr noalias sret(%"class.std::shared_ptr.286") align 8 %agg.result, ptr noundef nonnull align 8 dereferenceable(32) %name) local_unnamed_addr #0 {
entry:
  %call = tail call noundef ptr @_ZN8facebook5velox16getTypeFactoriesERKNSt7__cxx1112basic_stringIcSt11char_traitsIcESaIcEEE(ptr noundef nonnull align 8 dereferenceable(32) %name)
  %tobool.not = icmp eq ptr %call, null
  br i1 %tobool.not, label %if.end, label %if.then

if.then:                                          ; preds = %entry
  %vtable = load ptr, ptr %call, align 8
  %vfn = getelementptr inbounds i8, ptr %vtable, i64 24
  %0 = load ptr, ptr %vfn, align 8
  tail call void %0(ptr sret(%"class.std::shared_ptr.286") align 8 %agg.result, ptr noundef nonnull align 8 dereferenceable(8) %call)
  br label %return

if.end:                                           ; preds = %entry
  tail call void @llvm.memset.p0.i64(ptr noundef nonnull align 8 dereferenceable(16) %agg.result, i8 0, i64 16, i1 false)
  br label %return

return:                                           ; preds = %if.end, %if.then
  ret void
}